target datalayout = "e-m:e-p270:32:32-p271:32:32-p272:64:64-i64:64-i128:128-f80:128-n8:16:32:64-S128"
target triple = "x86_64-pc-linux-gnu"

%struct.bloom_filter_settings = type { i32, i32, i32, i32 }
%struct.bloom_key = type { ptr }

; Function Attrs: nounwind uwtable
define dso_local void @fill_bloom_key(ptr noundef %0, i64 noundef %1, ptr noundef %2, ptr noundef %3) #0 {
  %5 = alloca ptr, align 8
  %6 = alloca i64, align 8
  %7 = alloca ptr, align 8
  %8 = alloca ptr, align 8
  %9 = alloca i32, align 4
  %10 = alloca i32, align 4
  %11 = alloca i32, align 4
  %12 = alloca i32, align 4
  %13 = alloca i32, align 4
  store ptr %0, ptr %5, align 8, !tbaa !37
  store i64 %1, ptr %6, align 8, !tbaa !40
  store ptr %2, ptr %7, align 8, !tbaa !42
  store ptr %3, ptr %8, align 8, !tbaa !44
  call void @llvm.lifetime.start.p0(i64 4, ptr %9) #8
  call void @llvm.lifetime.start.p0(i64 4, ptr %10) #8
  store i32 691726191, ptr %10, align 4, !tbaa !11
  call void @llvm.lifetime.start.p0(i64 4, ptr %11) #8
  store i32 2120511020, ptr %11, align 4, !tbaa !11
  call void @llvm.lifetime.start.p0(i64 4, ptr %12) #8
  call void @llvm.lifetime.start.p0(i64 4, ptr %13) #8
  %14 = load ptr, ptr %8, align 8, !tbaa !44
  %15 = getelementptr inbounds nuw %struct.bloom_filter_settings, ptr %14, i32 0, i32 0
  %16 = load i32, ptr %15, align 4, !tbaa !32
  %17 = icmp eq i32 %16, 2
  br i1 %17, label %18, label %25

18:                                               ; preds = %4
  %19 = load ptr, ptr %5, align 8, !tbaa !37
  %20 = load i64, ptr %6, align 8, !tbaa !40
  %21 = call i32 @murmur3_seeded_v2(i32 noundef 691726191, ptr noundef %19, i64 noundef %20)
  store i32 %21, ptr %12, align 4, !tbaa !11
  %22 = load ptr, ptr %5, align 8, !tbaa !37
  %23 = load i64, ptr %6, align 8, !tbaa !40
  %24 = call i32 @murmur3_seeded_v2(i32 noundef 2120511020, ptr noundef %22, i64 noundef %23)
  store i32 %24, ptr %13, align 4, !tbaa !11
  br label %32

25:                                               ; preds = %4
  %26 = load ptr, ptr %5, align 8, !tbaa !37
  %27 = load i64, ptr %6, align 8, !tbaa !40
  %28 = call i32 @murmur3_seeded_v1(i32 noundef 691726191, ptr noundef %26, i64 noundef %27)
  store i32 %28, ptr %12, align 4, !tbaa !11
  %29 = load ptr, ptr %5, align 8, !tbaa !37
  %30 = load i64, ptr %6, align 8, !tbaa !40
  %31 = call i32 @murmur3_seeded_v1(i32 noundef 2120511020, ptr noundef %29, i64 noundef %30)
  store i32 %31, ptr %13, align 4, !tbaa !11
  br label %32

32:                                               ; preds = %25, %18
  %33 = load ptr, ptr %8, align 8, !tbaa !44
  %34 = getelementptr inbounds nuw %struct.bloom_filter_settings, ptr %33, i32 0, i32 1
  %35 = load i32, ptr %34, align 4, !tbaa !45
  %36 = zext i32 %35 to i64
  %37 = call ptr @xcalloc(i64 noundef %36, i64 noundef 4)
  %38 = load ptr, ptr %7, align 8, !tbaa !42
  %39 = getelementptr inbounds nuw %struct.bloom_key, ptr %38, i32 0, i32 0
  store ptr %37, ptr %39, align 8, !tbaa !46
  store i32 0, ptr %9, align 4, !tbaa !11
  br label %40

40:                                               ; preds = %58, %32
  %41 = load i32, ptr %9, align 4, !tbaa !11
  %42 = load ptr, ptr %8, align 8, !tbaa !44
  %43 = getelementptr inbounds nuw %struct.bloom_filter_settings, ptr %42, i32 0, i32 1
  %44 = load i32, ptr %43, align 4, !tbaa !45
  %45 = icmp ult i32 %41, %44
  br i1 %45, label %46, label %61

46:                                               ; preds = %40
  %47 = load i32, ptr %12, align 4, !tbaa !11
  %48 = load i32, ptr %9, align 4, !tbaa !11
  %49 = load i32, ptr %13, align 4, !tbaa !11
  %50 = mul i32 %48, %49
  %51 = add i32 %47, %50
  %52 = load ptr, ptr %7, align 8, !tbaa !42
  %53 = getelementptr inbounds nuw %struct.bloom_key, ptr %52, i32 0, i32 0
  %54 = load ptr, ptr %53, align 8, !tbaa !46
  %55 = load i32, ptr %9, align 4, !tbaa !11
  %56 = sext i32 %55 to i64
  %57 = getelementptr inbounds i32, ptr %54, i64 %56
  store i32 %51, ptr %57, align 4, !tbaa !11
  br label %58

58:                                               ; preds = %46
  %59 = load i32, ptr %9, align 4, !tbaa !11
  %60 = add nsw i32 %59, 1
  store i32 %60, ptr %9, align 4, !tbaa !11
  br label %40, !llvm.loop !48

61:                                               ; preds = %40
  call void @llvm.lifetime.end.p0(i64 4, ptr %13) #8
  call void @llvm.lifetime.end.p0(i64 4, ptr %12) #8
  call void @llvm.lifetime.end.p0(i64 4, ptr %11) #8
  call void @llvm.lifetime.end.p0(i64 4, ptr %10) #8
  call void @llvm.lifetime.end.p0(i64 4, ptr %9) #8
  ret void
}