; Function Attrs: nounwind uwtable
define dso_local void @fill_bloom_key(ptr noundef readonly captures(none) %0, i64 noundef %1, ptr noundef writeonly captures(none) initializes((0, 8)) %2, ptr noundef readonly captures(none) %3) local_unnamed_addr #0 {
  %5 = load i32, ptr %3, align 4, !tbaa !30
  %6 = icmp eq i32 %5, 2
  br i1 %6, label %7, label %10

7:                                                ; preds = %4
  %8 = tail call i32 @murmur3_seeded_v2(i32 noundef 691726191, ptr noundef %0, i64 noundef %1)
  %9 = tail call i32 @murmur3_seeded_v2(i32 noundef 2120511020, ptr noundef %0, i64 noundef %1)
  br label %13

10:                                               ; preds = %4
  %11 = tail call fastcc i32 @murmur3_seeded_v1(i32 noundef 691726191, ptr noundef %0, i64 noundef %1)
  %12 = tail call fastcc i32 @murmur3_seeded_v1(i32 noundef 2120511020, ptr noundef %0, i64 noundef %1)
  br label %13

13:                                               ; preds = %10, %7
  %.018 = phi i32 [ %8, %7 ], [ %11, %10 ]
  %.0 = phi i32 [ %9, %7 ], [ %12, %10 ]
  %14 = getelementptr inbounds nuw i8, ptr %3, i64 4
  %15 = load i32, ptr %14, align 4, !tbaa !35
  %16 = zext i32 %15 to i64
  %17 = tail call ptr @xcalloc(i64 noundef %16, i64 noundef 4) #14
  store ptr %17, ptr %2, align 8, !tbaa !36
  %18 = load i32, ptr %14, align 4, !tbaa !35
  %.not = icmp eq i32 %18, 0
  br i1 %.not, label %._crit_edge, label %.lr.ph

.lr.ph:                                           ; preds = %13, %.lr.ph
  %indvars.iv = phi i64 [ %indvars.iv.next, %.lr.ph ], [ 0, %13 ]
  %19 = trunc nuw nsw i64 %indvars.iv to i32
  %20 = mul i32 %.0, %19
  %21 = add i32 %20, %.018
  %22 = getelementptr inbounds nuw i32, ptr %17, i64 %indvars.iv
  store i32 %21, ptr %22, align 4, !tbaa !38
  %indvars.iv.next = add nuw nsw i64 %indvars.iv, 1
  %23 = load i32, ptr %14, align 4, !tbaa !35
  %24 = zext i32 %23 to i64
  %25 = icmp samesign ult i64 %indvars.iv.next, %24
  br i1 %25, label %.lr.ph, label %._crit_edge, !llvm.loop !39

._crit_edge:                                      ; preds = %.lr.ph, %13
  ret void
}